target datalayout = "e-m:e-p270:32:32-p271:32:32-p272:64:64-i64:64-i128:128-f80:128-n8:16:32:64-S128"
target triple = "x86_64-pc-linux-gnu"

%struct.eio_handle_components = type { i32, [2 x i32], %union.pthread_mutex_t, i64, i16, ptr, ptr }
%union.pthread_mutex_t = type { %struct.__pthread_mutex_s }
%struct.__pthread_mutex_s = type { i32, i32, i32, i32, i32, i16, i16, %struct.__pthread_internal_list }
%struct.__pthread_internal_list = type { ptr, ptr }

@.str.12 = private unnamed_addr constant [29 x i8] c"%s: pthread_mutex_lock(): %m\00", align 1
@__func__.eio_signal_shutdown = private unnamed_addr constant [20 x i8] c"eio_signal_shutdown\00", align 1
@.str.13 = private unnamed_addr constant [31 x i8] c"%s: pthread_mutex_unlock(): %m\00", align 1
@.str.14 = private unnamed_addr constant [14 x i8] c"%s: write; %m\00", align 1

; Function Attrs: nounwind uwtable
define dso_local i32 @eio_signal_shutdown(ptr noundef %0) #0 {
  %2 = alloca i32, align 4
  %3 = alloca ptr, align 8
  %4 = alloca i8, align 1
  %5 = alloca i32, align 4
  %6 = alloca i32, align 4
  %7 = alloca i32, align 4
  store ptr %0, ptr %3, align 8
  call void @llvm.lifetime.start.p0(i64 1, ptr %4) #7
  store i8 1, ptr %4, align 1
  br label %8

8:                                                ; preds = %1
  call void @llvm.lifetime.start.p0(i64 4, ptr %5) #7
  %9 = load ptr, ptr %3, align 8
  %10 = getelementptr inbounds nuw %struct.eio_handle_components, ptr %9, i32 0, i32 2
  %11 = call i32 @pthread_mutex_lock(ptr noundef %10) #7
  store i32 %11, ptr %5, align 4
  %12 = load i32, ptr %5, align 4
  %13 = icmp ne i32 %12, 0
  br i1 %13, label %14, label %17

14:                                               ; preds = %8
  %15 = load i32, ptr %5, align 4
  %16 = call ptr @__errno_location() #8
  store i32 %15, ptr %16, align 4
  call void (ptr, ...) @fatal_abort(ptr noundef @.str.12, ptr noundef @__func__.eio_signal_shutdown) #9
  unreachable

17:                                               ; preds = %8
  call void @llvm.lifetime.end.p0(i64 4, ptr %5) #7
  br label %18

18:                                               ; preds = %17
  br label %19

19:                                               ; preds = %18
  %20 = call i64 @time(ptr noundef null) #7
  %21 = load ptr, ptr %3, align 8
  %22 = getelementptr inbounds nuw %struct.eio_handle_components, ptr %21, i32 0, i32 3
  store i64 %20, ptr %22, align 8
  br label %23

23:                                               ; preds = %19
  call void @llvm.lifetime.start.p0(i64 4, ptr %6) #7
  %24 = load ptr, ptr %3, align 8
  %25 = getelementptr inbounds nuw %struct.eio_handle_components, ptr %24, i32 0, i32 2
  %26 = call i32 @pthread_mutex_unlock(ptr noundef %25) #7
  store i32 %26, ptr %6, align 4
  %27 = load i32, ptr %6, align 4
  %28 = icmp ne i32 %27, 0
  br i1 %28, label %29, label %32

29:                                               ; preds = %23
  %30 = load i32, ptr %6, align 4
  %31 = call ptr @__errno_location() #8
  store i32 %30, ptr %31, align 4
  call void (ptr, ...) @fatal_abort(ptr noundef @.str.13, ptr noundef @__func__.eio_signal_shutdown) #9
  unreachable

32:                                               ; preds = %23
  call void @llvm.lifetime.end.p0(i64 4, ptr %6) #7
  br label %33

33:                                               ; preds = %32
  br label %34

34:                                               ; preds = %33
  %35 = load ptr, ptr %3, align 8
  %36 = getelementptr inbounds nuw %struct.eio_handle_components, ptr %35, i32 0, i32 1
  %37 = getelementptr inbounds [2 x i32], ptr %36, i64 0, i64 1
  %38 = load i32, ptr %37, align 4
  %39 = call i64 @write(i32 noundef %38, ptr noundef %4, i64 noundef 1)
  %40 = icmp ne i64 %39, 1
  br i1 %40, label %41, label %43

41:                                               ; preds = %34
  %42 = call i32 (ptr, ...) @error(ptr noundef @.str.14, ptr noundef @__func__.eio_signal_shutdown)
  store i32 %42, ptr %2, align 4
  store i32 1, ptr %7, align 4
  br label %44

43:                                               ; preds = %34
  store i32 0, ptr %2, align 4
  store i32 1, ptr %7, align 4
  br label %44

44:                                               ; preds = %43, %41
  call void @llvm.lifetime.end.p0(i64 1, ptr %4) #7
  %45 = load i32, ptr %2, align 4
  ret i32 %45
}