; Function Attrs: nounwind uwtable
define dso_local i32 @eio_signal_shutdown(ptr noundef %0) #0 {
  %2 = alloca i8, align 1
  call void @llvm.lifetime.start.p0(i64 1, ptr nonnull %2) #10
  store i8 1, ptr %2, align 1
  %3 = getelementptr inbounds nuw i8, ptr %0, i64 16
  %4 = tail call i32 @pthread_mutex_lock(ptr noundef nonnull %3) #10
  %.not = icmp eq i32 %4, 0
  br i1 %.not, label %7, label %5

5:                                                ; preds = %1
  %6 = tail call ptr @__errno_location() #11
  store i32 %4, ptr %6, align 4
  tail call void (ptr, ...) @fatal_abort(ptr noundef nonnull @.str.12, ptr noundef nonnull @__func__.eio_signal_shutdown) #12
  unreachable

7:                                                ; preds = %1
  %8 = tail call i64 @time(ptr noundef null) #10
  %9 = getelementptr inbounds nuw i8, ptr %0, i64 56
  store i64 %8, ptr %9, align 8
  %10 = tail call i32 @pthread_mutex_unlock(ptr noundef nonnull %3) #10
  %.not10 = icmp eq i32 %10, 0
  br i1 %.not10, label %13, label %11

11:                                               ; preds = %7
  %12 = tail call ptr @__errno_location() #11
  store i32 %10, ptr %12, align 4
  tail call void (ptr, ...) @fatal_abort(ptr noundef nonnull @.str.13, ptr noundef nonnull @__func__.eio_signal_shutdown) #12
  unreachable

13:                                               ; preds = %7
  %14 = getelementptr inbounds nuw i8, ptr %0, i64 8
  %15 = load i32, ptr %14, align 4
  %16 = call i64 @write(i32 noundef %15, ptr noundef nonnull %2, i64 noundef 1) #10
  %.not11 = icmp eq i64 %16, 1
  br i1 %.not11, label %19, label %17

17:                                               ; preds = %13
  %18 = tail call i32 (ptr, ...) @error(ptr noundef nonnull @.str.14, ptr noundef nonnull @__func__.eio_signal_shutdown) #10
  br label %19

19:                                               ; preds = %13, %17
  %.0 = phi i32 [ %18, %17 ], [ 0, %13 ]
  call void @llvm.lifetime.end.p0(i64 1, ptr nonnull %2) #10
  ret i32 %.0
}